Certificate:
    Data:
        Version: 3 (0x2)
        Serial Number: 17816551067821423203 (0xf7411accd01a3a63)
    Signature Algorithm: sha1WithRSAEncryption
        Issuer: C=NO, ST=Oslo, O=Chris Searle, CN=Chris Searle Root Certificate Authority/emailAddress=hostmaster@chrissearle.org
        Validity
            Not Before: Oct 25 08:21:29 2013 GMT
            Not After : Oct 21 08:21:29 2028 GMT
        Subject: C=NO, ST=Oslo, O=Chris Searle, CN=Chris Searle Root Certificate Authority/emailAddress=hostmaster@chrissearle.org
        Subject Public Key Info:
            Public Key Algorithm: rsaEncryption
                Public-Key: (2048 bit)
                Modulus:
                    00:b8:34:ec:70:25:3d:4b:cc:ee:90:90:09:48:42:
                    74:1f:8e:ec:af:7c:40:d0:b2:f0:48:42:da:6f:86:
                    5c:05:38:db:20:50:c6:eb:de:cd:7e:f1:e1:f4:be:
                    8f:b5:5d:a6:e7:e7:11:48:be:fe:70:a6:a7:59:ee:
                    3d:7f:e4:d5:32:40:bc:88:a9:7b:da:c1:b2:fc:1f:
                    e6:0d:c1:7b:63:00:b5:7d:af:fe:10:a8:43:f9:d7:
                    c3:63:61:e1:83:d7:55:84:dc:36:b4:1c:44:4d:ac:
                    f7:95:8c:58:79:20:03:ab:77:b9:d9:e4:d5:e6:d3:
                    71:3b:8e:ad:0b:ab:e4:28:c5:d9:0c:a7:77:65:fc:
                    0b:06:cc:6f:bc:2f:00:16:f8:36:83:17:c8:d7:87:
                    9f:b5:b1:89:02:3d:57:c5:03:6d:b1:2b:75:52:2a:
                    0d:5b:16:4d:f1:1e:32:92:9f:8e:db:b6:f8:14:12:
                    a8:47:cf:3f:15:b3:b5:a7:47:12:0b:90:d5:e9:f4:
                    fd:de:39:9d:ca:20:47:9d:dd:79:03:e3:c8:ee:50:
                    3e:a2:b2:d9:26:30:84:29:08:fb:a4:e4:db:2e:32:
                    1e:02:e5:d0:99:59:f7:5c:db:29:28:cf:6c:42:de:
                    45:13:06:ae:5a:0d:2c:3b:fa:3a:21:6a:24:b4:e3:
                    98:b7
                Exponent: 65537 (0x10001)
        X509v3 extensions:
            X509v3 Subject Key Identifier:
                7E:49:1C:9F:CE:0F:F6:B4:BF:12:AC:11:51:27:35:72:90:55:FD:9C
            X509v3 Authority Key Identifier:
                keyid:7E:49:1C:9F:CE:0F:F6:B4:BF:12:AC:11:51:27:35:72:90:55:FD:9C

            X509v3 Basic Constraints:
                CA:TRUE
    Signature Algorithm: sha1WithRSAEncryption
         ae:c5:d8:c2:f1:e9:6f:12:a1:96:39:dc:48:96:57:a9:1a:19:
         5e:aa:27:0b:50:85:36:34:e3:5f:f8:9a:e4:de:ea:ce:eb:81:
         21:a1:51:dc:43:3a:57:77:c6:c6:63:10:3c:2b:86:23:c1:49:
         e5:c0:84:9f:0f:c1:eb:ec:a7:df:aa:ab:38:3e:be:3e:27:19:
         a7:02:ca:41:2c:33:b0:0c:67:9c:06:eb:57:90:db:fc:a7:7d:
         7a:5f:ed:05:f2:00:8c:e7:ac:4e:ee:5b:b8:2a:ae:c3:89:99:
         7a:5f:e1:c1:d8:69:c8:47:de:1f:3f:ea:7a:e5:8e:fc:91:9b:
         d9:91:e2:8e:2d:9a:7a:45:65:4d:a4:a4:ed:67:ad:3f:78:d6:
         a7:1a:7e:69:c9:5d:cb:b3:99:3f:63:da:30:d4:1e:b8:41:92:
         5c:61:7e:97:16:d0:43:0a:53:e4:c1:2c:0d:62:05:56:26:ff:
         32:7b:76:5a:2f:56:d4:64:b7:e5:d2:55:f3:57:ff:5c:4d:41:
         aa:c1:02:9a:5d:c1:3e:f2:20:e2:a6:e6:75:64:e6:29:24:69:
         f0:47:3c:09:3e:ed:17:75:c2:32:73:c6:26:c6:05:dc:cd:85:
         87:16:95:e5:da:5f:11:2a:3a:50:8f:b7:7a:be:4c:33:79:db:
         78:84:3c:30
-----BEGIN CERTIFICATE-----
MIID9TCCAt2gAwIBAgIJAPdBGszQGjpjMA0GCSqGSIb3DQEBBQUAMIGQMQswCQYD
VQQGEwJOTzENMAsGA1UECAwET3NsbzEVMBMGA1UECgwMQ2hyaXMgU2VhcmxlMTAw
LgYDVQQDDCdDaHJpcyBTZWFybGUgUm9vdCBDZXJ0aWZpY2F0ZSBBdXRob3JpdHkx
KTAnBgkqhkiG9w0BCQEWGmhvc3RtYXN0ZXJAY2hyaXNzZWFybGUub3JnMB4XDTEz
MTAyNTA4MjEyOVoXDTI4MTAyMTA4MjEyOVowgZAxCzAJBgNVBAYTAk5PMQ0wCwYD
VQQIDARPc2xvMRUwEwYDVQQKDAxDaHJpcyBTZWFybGUxMDAuBgNVBAMMJ0Nocmlz
IFNlYXJsZSBSb290IENlcnRpZmljYXRlIEF1dGhvcml0eTEpMCcGCSqGSIb3DQEJ
ARYaaG9zdG1hc3RlckBjaHJpc3NlYXJsZS5vcmcwggEiMA0GCSqGSIb3DQEBAQUA
A4IBDwAwggEKAoIBAQC4NOxwJT1LzO6QkAlIQnQfjuyvfEDQsvBIQtpvhlwFONsg
UMbr3s1+8eH0vo+1Xabn5xFIvv5wpqdZ7j1/5NUyQLyIqXvawbL8H+YNwXtjALV9
r/4QqEP518NjYeGD11WE3Da0HERNrPeVjFh5IAOrd7nZ5NXm03E7jq0Lq+QoxdkM
p3dl/AsGzG+8LwAW+DaDF8jXh5+1sYkCPVfFA22xK3VSKg1bFk3xHjKSn47btvgU
EqhHzz8Vs7WnRxILkNXp9P3eOZ3KIEed3XkD48juUD6istkmMIQpCPuk5NsuMh4C
5dCZWfdc2ykoz2xC3kUTBq5aDSw7+johaiS045i3AgMBAAGjUDBOMB0GA1UdDgQW
BBR+SRyfzg/2tL8SrBFRJzVykFX9nDAfBgNVHSMEGDAWgBR+SRyfzg/2tL8SrBFR
JzVykFX9nDAMBgNVHRMEBTADAQH/MA0GCSqGSIb3DQEBBQUAA4IBAQCuxdjC8elv
EqGWOdxIllepGhleqicLUIU2NONf+Jrk3urO64EhoVHcQzpXd8bGYxA8K4YjwUnl
wISfD8Hr7Kffqqs4Pr4+JxmnAspBLDOwDGecButXkNv8p316X+0F8gCM56xO7lu4
Kq7DiZl6X+HB2GnIR94fP+p65Y78kZvZkeKOLZp6RWVNpKTtZ60/eNanGn5pyV3L
s5k/Y9ow1B64QZJcYX6XFtBDClPkwSwNYgVWJv8ye3ZaL1bUZLfl0lXzV/9cTUGq
wQKaXcE+8iDipuZ1ZOYpJGnwRzwJPu0XdcIyc8YmxgXczYWHFpXl2l8RKjpQj7d6
vkwzedt4hDww
-----END CERTIFICATE-----